;;; FLAGS: -dv
(module
  ;; parameters are always first
  ;;             0   1
  (func (param i32 f32)
    ;; by default, sexpr-wasm will remap locals so all similar types are
    ;; grouped together, in the order i32, i64, f32, f64.
    ;; i32           2
    ;; i64   3
    ;; f32       4       5
    (local i64 f32 i32 f32)
    (drop (get_local 0))
    (drop (get_local 1))
    (drop (get_local 2))
    (drop (get_local 3))
    (drop (get_local 4))
    (drop (get_local 5))))
(;; STDOUT ;;;
0000000: 0061 736d                                  ; WASM_BINARY_MAGIC
0000004: 0c00 0000                                  ; WASM_BINARY_VERSION
; section "type"
0000008: 04                                         ; string length
0000009: 7479 7065                                  ; section id: "type"
000000d: 00                                         ; section size (guess)
000000e: 01                                         ; num types
; type 0
000000f: 40                                         ; function form
0000010: 02                                         ; num params
0000011: 01                                         ; param type
0000012: 03                                         ; param type
0000013: 00                                         ; num results
000000d: 06                                         ; FIXUP section size
; section "function"
0000014: 08                                         ; string length
0000015: 6675 6e63 7469 6f6e                        ; section id: "function"
000001d: 00                                         ; section size (guess)
000001e: 01                                         ; num functions
000001f: 00                                         ; function 0 signature index
000001d: 02                                         ; FIXUP section size
; section "code"
0000020: 04                                         ; string length
0000021: 636f 6465                                  ; section id: "code"
0000025: 00                                         ; section size (guess)
0000026: 01                                         ; num functions
; function body 0
0000027: 00                                         ; func body size (guess)
0000028: 03                                         ; local decl count
0000029: 01                                         ; local type count
000002a: 01                                         ; WASM_TYPE_I32
000002b: 01                                         ; local type count
000002c: 02                                         ; WASM_TYPE_I64
000002d: 02                                         ; local type count
000002e: 03                                         ; WASM_TYPE_F32
000002f: 14                                         ; OPCODE_GET_LOCAL
0000030: 00                                         ; remapped local index
0000031: 0b                                         ; OPCODE_DROP
0000032: 14                                         ; OPCODE_GET_LOCAL
0000033: 01                                         ; remapped local index
0000034: 0b                                         ; OPCODE_DROP
0000035: 14                                         ; OPCODE_GET_LOCAL
0000036: 03                                         ; remapped local index
0000037: 0b                                         ; OPCODE_DROP
0000038: 14                                         ; OPCODE_GET_LOCAL
0000039: 04                                         ; remapped local index
000003a: 0b                                         ; OPCODE_DROP
000003b: 14                                         ; OPCODE_GET_LOCAL
000003c: 02                                         ; remapped local index
000003d: 0b                                         ; OPCODE_DROP
000003e: 14                                         ; OPCODE_GET_LOCAL
000003f: 05                                         ; remapped local index
0000040: 0b                                         ; OPCODE_DROP
0000027: 19                                         ; FIXUP func body size
0000025: 1b                                         ; FIXUP section size
;; dump
0000000: 0061 736d 0c00 0000 0474 7970 6506 0140  
0000010: 0201 0300 0866 756e 6374 696f 6e02 0100  
0000020: 0463 6f64 651b 0119 0301 0101 0202 0314  
0000030: 000b 1401 0b14 030b 1404 0b14 020b 1405  
0000040: 0b                                       
;;; STDOUT ;;)
