;;; FLAGS: -dv
(module
  (func
    ;; by default, sexpr-wasm will remap locals so all similar types are
    ;; grouped together, in the order i32, i64, f32, f64.
    ;; i32               0   1
    ;; i64           2                   3
    ;; f32       4               5
    ;; f64   6                       7
    (local f64 f32 i64 i32 i32 f32 f64 i64)
    (drop (get_local 0))
    (drop (get_local 1))
    (drop (get_local 2))
    (drop (get_local 3))
    (drop (get_local 4))
    (drop (get_local 5))
    (drop (get_local 6))
    (drop (get_local 7))))
(;; STDOUT ;;;
0000000: 0061 736d                                  ; WASM_BINARY_MAGIC
0000004: 0c00 0000                                  ; WASM_BINARY_VERSION
; section "type"
0000008: 04                                         ; string length
0000009: 7479 7065                                  ; section id: "type"
000000d: 00                                         ; section size (guess)
000000e: 01                                         ; num types
; type 0
000000f: 40                                         ; function form
0000010: 00                                         ; num params
0000011: 00                                         ; num results
000000d: 04                                         ; FIXUP section size
; section "function"
0000012: 08                                         ; string length
0000013: 6675 6e63 7469 6f6e                        ; section id: "function"
000001b: 00                                         ; section size (guess)
000001c: 01                                         ; num functions
000001d: 00                                         ; function 0 signature index
000001b: 02                                         ; FIXUP section size
; section "code"
000001e: 04                                         ; string length
000001f: 636f 6465                                  ; section id: "code"
0000023: 00                                         ; section size (guess)
0000024: 01                                         ; num functions
; function body 0
0000025: 00                                         ; func body size (guess)
0000026: 04                                         ; local decl count
0000027: 02                                         ; local type count
0000028: 01                                         ; WASM_TYPE_I32
0000029: 02                                         ; local type count
000002a: 02                                         ; WASM_TYPE_I64
000002b: 02                                         ; local type count
000002c: 03                                         ; WASM_TYPE_F32
000002d: 02                                         ; local type count
000002e: 04                                         ; WASM_TYPE_F64
000002f: 14                                         ; OPCODE_GET_LOCAL
0000030: 06                                         ; remapped local index
0000031: 0b                                         ; OPCODE_DROP
0000032: 14                                         ; OPCODE_GET_LOCAL
0000033: 04                                         ; remapped local index
0000034: 0b                                         ; OPCODE_DROP
0000035: 14                                         ; OPCODE_GET_LOCAL
0000036: 02                                         ; remapped local index
0000037: 0b                                         ; OPCODE_DROP
0000038: 14                                         ; OPCODE_GET_LOCAL
0000039: 00                                         ; remapped local index
000003a: 0b                                         ; OPCODE_DROP
000003b: 14                                         ; OPCODE_GET_LOCAL
000003c: 01                                         ; remapped local index
000003d: 0b                                         ; OPCODE_DROP
000003e: 14                                         ; OPCODE_GET_LOCAL
000003f: 05                                         ; remapped local index
0000040: 0b                                         ; OPCODE_DROP
0000041: 14                                         ; OPCODE_GET_LOCAL
0000042: 07                                         ; remapped local index
0000043: 0b                                         ; OPCODE_DROP
0000044: 14                                         ; OPCODE_GET_LOCAL
0000045: 03                                         ; remapped local index
0000046: 0b                                         ; OPCODE_DROP
0000025: 21                                         ; FIXUP func body size
0000023: 23                                         ; FIXUP section size
;; dump
0000000: 0061 736d 0c00 0000 0474 7970 6504 0140  
0000010: 0000 0866 756e 6374 696f 6e02 0100 0463  
0000020: 6f64 6523 0121 0402 0102 0202 0302 0414  
0000030: 060b 1404 0b14 020b 1400 0b14 010b 1405  
0000040: 0b14 070b 1403 0b                        
;;; STDOUT ;;)
